target datalayout = "e-m:e-p270:32:32-p271:32:32-p272:64:64-i64:64-i128:128-f80:128-n8:16:32:64-S128"
target triple = "x86_64-pc-linux-gnu"

%struct.Fra_Cla_t_ = type { ptr, ptr, ptr, ptr, ptr, ptr, ptr, ptr, ptr, i32, i32, ptr, ptr, ptr, ptr }
%struct.Aig_Obj_t_ = type { %union.anon, ptr, ptr, i64, i32, i32, %union.anon.0 }
%union.anon = type { ptr }
%union.anon.0 = type { ptr }
%struct.Vec_Ptr_t_ = type { i32, i32, ptr }
%struct.Vec_Int_t_ = type { i32, i32, ptr }

@.str.1 = private unnamed_addr constant [3 x i8] c"{ \00", align 1
@.str.2 = private unnamed_addr constant [11 x i8] c"%d(%d,%d) \00", align 1
@.str.3 = private unnamed_addr constant [3 x i8] c"}\0A\00", align 1
@.str.4 = private unnamed_addr constant [38 x i8] c"Const = %5d. Class = %5d. Lit = %5d. \00", align 1
@.str.5 = private unnamed_addr constant [12 x i8] c"Imp = %5d. \00", align 1
@.str.6 = private unnamed_addr constant [2 x i8] c"\0A\00", align 1
@.str.7 = private unnamed_addr constant [13 x i8] c"Constants { \00", align 1
@.str.8 = private unnamed_addr constant [13 x i8] c"%3d (%3d) : \00", align 1

; Function Attrs: nounwind uwtable
define void @Fra_PrintClass(ptr noundef %0, ptr noundef %1) #0 {
  %3 = alloca ptr, align 8
  %4 = alloca ptr, align 8
  %5 = alloca ptr, align 8
  %6 = alloca i32, align 4
  store ptr %0, ptr %3, align 8, !tbaa !8
  store ptr %1, ptr %4, align 8, !tbaa !53
  call void @llvm.lifetime.start.p0(i64 8, ptr %5) #10
  call void @llvm.lifetime.start.p0(i64 4, ptr %6) #10
  store i32 1, ptr %6, align 4, !tbaa !35
  br label %7

7:                                                ; preds = %15, %2
  %8 = load ptr, ptr %4, align 8, !tbaa !53
  %9 = load i32, ptr %6, align 4, !tbaa !35
  %10 = sext i32 %9 to i64
  %11 = getelementptr inbounds ptr, ptr %8, i64 %10
  %12 = load ptr, ptr %11, align 8, !tbaa !47
  store ptr %12, ptr %5, align 8, !tbaa !47
  %13 = icmp ne ptr %12, null
  br i1 %13, label %14, label %18

14:                                               ; preds = %7
  br label %15

15:                                               ; preds = %14
  %16 = load i32, ptr %6, align 4, !tbaa !35
  %17 = add nsw i32 %16, 1
  store i32 %17, ptr %6, align 4, !tbaa !35
  br label %7, !llvm.loop !57

18:                                               ; preds = %7
  %19 = call i32 (ptr, ...) @printf(ptr noundef @.str.1)
  store i32 0, ptr %6, align 4, !tbaa !35
  br label %20

20:                                               ; preds = %43, %18
  %21 = load ptr, ptr %4, align 8, !tbaa !53
  %22 = load i32, ptr %6, align 4, !tbaa !35
  %23 = sext i32 %22 to i64
  %24 = getelementptr inbounds ptr, ptr %21, i64 %23
  %25 = load ptr, ptr %24, align 8, !tbaa !47
  store ptr %25, ptr %5, align 8, !tbaa !47
  %26 = icmp ne ptr %25, null
  br i1 %26, label %27, label %46

27:                                               ; preds = %20
  %28 = load ptr, ptr %5, align 8, !tbaa !47
  %29 = getelementptr inbounds nuw %struct.Aig_Obj_t_, ptr %28, i32 0, i32 5
  %30 = load i32, ptr %29, align 4, !tbaa !50
  %31 = load ptr, ptr %5, align 8, !tbaa !47
  %32 = getelementptr inbounds nuw %struct.Aig_Obj_t_, ptr %31, i32 0, i32 3
  %33 = load i64, ptr %32, align 8
  %34 = lshr i64 %33, 32
  %35 = and i64 %34, 16777215
  %36 = trunc i64 %35 to i32
  %37 = load ptr, ptr %3, align 8, !tbaa !8
  %38 = getelementptr inbounds nuw %struct.Fra_Cla_t_, ptr %37, i32 0, i32 0
  %39 = load ptr, ptr %38, align 8, !tbaa !10
  %40 = load ptr, ptr %5, align 8, !tbaa !47
  %41 = call i32 @Aig_SupportSize(ptr noundef %39, ptr noundef %40)
  %42 = call i32 (ptr, ...) @printf(ptr noundef @.str.2, i32 noundef %30, i32 noundef %36, i32 noundef %41)
  br label %43

43:                                               ; preds = %27
  %44 = load i32, ptr %6, align 4, !tbaa !35
  %45 = add nsw i32 %44, 1
  store i32 %45, ptr %6, align 4, !tbaa !35
  br label %20, !llvm.loop !58

46:                                               ; preds = %20
  %47 = call i32 (ptr, ...) @printf(ptr noundef @.str.3)
  call void @llvm.lifetime.end.p0(i64 4, ptr %6) #10
  call void @llvm.lifetime.end.p0(i64 8, ptr %5) #10
  ret void
}

; Function Attrs: nounwind uwtable
define i32 @Fra_ClassCount(ptr noundef %0) #0 {
  %2 = alloca ptr, align 8
  %3 = alloca ptr, align 8
  %4 = alloca i32, align 4
  store ptr %0, ptr %2, align 8, !tbaa !53
  call void @llvm.lifetime.start.p0(i64 8, ptr %3) #10
  call void @llvm.lifetime.start.p0(i64 4, ptr %4) #10
  store i32 0, ptr %4, align 4, !tbaa !35
  br label %5

5:                                                ; preds = %13, %1
  %6 = load ptr, ptr %2, align 8, !tbaa !53
  %7 = load i32, ptr %4, align 4, !tbaa !35
  %8 = sext i32 %7 to i64
  %9 = getelementptr inbounds ptr, ptr %6, i64 %8
  %10 = load ptr, ptr %9, align 8, !tbaa !47
  store ptr %10, ptr %3, align 8, !tbaa !47
  %11 = icmp ne ptr %10, null
  br i1 %11, label %12, label %16

12:                                               ; preds = %5
  br label %13

13:                                               ; preds = %12
  %14 = load i32, ptr %4, align 4, !tbaa !35
  %15 = add nsw i32 %14, 1
  store i32 %15, ptr %4, align 4, !tbaa !35
  br label %5, !llvm.loop !54

16:                                               ; preds = %5
  %17 = load i32, ptr %4, align 4, !tbaa !35
  call void @llvm.lifetime.end.p0(i64 4, ptr %4) #10
  call void @llvm.lifetime.end.p0(i64 8, ptr %3) #10
  ret i32 %17
}

; Function Attrs: inlinehint nounwind uwtable
define internal ptr @Vec_PtrEntry(ptr noundef %0, i32 noundef %1) #4 {
  %3 = alloca ptr, align 8
  %4 = alloca i32, align 4
  store ptr %0, ptr %3, align 8, !tbaa !36
  store i32 %1, ptr %4, align 4, !tbaa !35
  %5 = load ptr, ptr %3, align 8, !tbaa !36
  %6 = getelementptr inbounds nuw %struct.Vec_Ptr_t_, ptr %5, i32 0, i32 2
  %7 = load ptr, ptr %6, align 8, !tbaa !40
  %8 = load i32, ptr %4, align 4, !tbaa !35
  %9 = sext i32 %8 to i64
  %10 = getelementptr inbounds ptr, ptr %7, i64 %9
  %11 = load ptr, ptr %10, align 8, !tbaa !52
  ret ptr %11
}

; Function Attrs: inlinehint nounwind uwtable
define internal i32 @Vec_IntSize(ptr noundef %0) #4 {
  %2 = alloca ptr, align 8
  store ptr %0, ptr %2, align 8, !tbaa !43
  %3 = load ptr, ptr %2, align 8, !tbaa !43
  %4 = getelementptr inbounds nuw %struct.Vec_Int_t_, ptr %3, i32 0, i32 1
  %5 = load i32, ptr %4, align 4, !tbaa !62
  ret i32 %5
}

; Function Attrs: nounwind uwtable
define i32 @Fra_ClassesCountLits(ptr noundef %0) #0 {
  %2 = alloca ptr, align 8
  %3 = alloca ptr, align 8
  %4 = alloca i32, align 4
  %5 = alloca i32, align 4
  %6 = alloca i32, align 4
  store ptr %0, ptr %2, align 8, !tbaa !8
  call void @llvm.lifetime.start.p0(i64 8, ptr %3) #10
  call void @llvm.lifetime.start.p0(i64 4, ptr %4) #10
  call void @llvm.lifetime.start.p0(i64 4, ptr %5) #10
  call void @llvm.lifetime.start.p0(i64 4, ptr %6) #10
  store i32 0, ptr %6, align 4, !tbaa !35
  %7 = load ptr, ptr %2, align 8, !tbaa !8
  %8 = getelementptr inbounds nuw %struct.Fra_Cla_t_, ptr %7, i32 0, i32 3
  %9 = load ptr, ptr %8, align 8, !tbaa !18
  %10 = call i32 @Vec_PtrSize(ptr noundef %9)
  store i32 %10, ptr %6, align 4, !tbaa !35
  store i32 0, ptr %4, align 4, !tbaa !35
  br label %11

11:                                               ; preds = %33, %1
  %12 = load i32, ptr %4, align 4, !tbaa !35
  %13 = load ptr, ptr %2, align 8, !tbaa !8
  %14 = getelementptr inbounds nuw %struct.Fra_Cla_t_, ptr %13, i32 0, i32 2
  %15 = load ptr, ptr %14, align 8, !tbaa !17
  %16 = call i32 @Vec_PtrSize(ptr noundef %15)
  %17 = icmp slt i32 %12, %16
  br i1 %17, label %18, label %24

18:                                               ; preds = %11
  %19 = load ptr, ptr %2, align 8, !tbaa !8
  %20 = getelementptr inbounds nuw %struct.Fra_Cla_t_, ptr %19, i32 0, i32 2
  %21 = load ptr, ptr %20, align 8, !tbaa !17
  %22 = load i32, ptr %4, align 4, !tbaa !35
  %23 = call ptr @Vec_PtrEntry(ptr noundef %21, i32 noundef %22)
  store ptr %23, ptr %3, align 8, !tbaa !53
  br label %24

24:                                               ; preds = %18, %11
  %25 = phi i1 [ false, %11 ], [ true, %18 ]
  br i1 %25, label %26, label %36

26:                                               ; preds = %24
  %27 = load ptr, ptr %3, align 8, !tbaa !53
  %28 = call i32 @Fra_ClassCount(ptr noundef %27)
  store i32 %28, ptr %5, align 4, !tbaa !35
  %29 = load i32, ptr %5, align 4, !tbaa !35
  %30 = sub nsw i32 %29, 1
  %31 = load i32, ptr %6, align 4, !tbaa !35
  %32 = add nsw i32 %31, %30
  store i32 %32, ptr %6, align 4, !tbaa !35
  br label %33

33:                                               ; preds = %26
  %34 = load i32, ptr %4, align 4, !tbaa !35
  %35 = add nsw i32 %34, 1
  store i32 %35, ptr %4, align 4, !tbaa !35
  br label %11, !llvm.loop !55

36:                                               ; preds = %24
  %37 = load i32, ptr %6, align 4, !tbaa !35
  call void @llvm.lifetime.end.p0(i64 4, ptr %6) #10
  call void @llvm.lifetime.end.p0(i64 4, ptr %5) #10
  call void @llvm.lifetime.end.p0(i64 4, ptr %4) #10
  call void @llvm.lifetime.end.p0(i64 8, ptr %3) #10
  ret i32 %37
}

; Function Attrs: inlinehint nounwind uwtable
define internal i32 @Vec_PtrSize(ptr noundef %0) #4 {
  %2 = alloca ptr, align 8
  store ptr %0, ptr %2, align 8, !tbaa !36
  %3 = load ptr, ptr %2, align 8, !tbaa !36
  %4 = getelementptr inbounds nuw %struct.Vec_Ptr_t_, ptr %3, i32 0, i32 1
  %5 = load i32, ptr %4, align 4, !tbaa !37
  ret i32 %5
}

; Function Attrs: nounwind uwtable
define void @Fra_ClassesPrint(ptr noundef %0, i32 noundef %1) #0 {
  %3 = alloca ptr, align 8
  %4 = alloca i32, align 4
  %5 = alloca ptr, align 8
  %6 = alloca ptr, align 8
  %7 = alloca i32, align 4
  store ptr %0, ptr %3, align 8, !tbaa !8
  store i32 %1, ptr %4, align 4, !tbaa !35
  call void @llvm.lifetime.start.p0(i64 8, ptr %5) #10
  call void @llvm.lifetime.start.p0(i64 8, ptr %6) #10
  call void @llvm.lifetime.start.p0(i64 4, ptr %7) #10
  %8 = load ptr, ptr %3, align 8, !tbaa !8
  %9 = getelementptr inbounds nuw %struct.Fra_Cla_t_, ptr %8, i32 0, i32 3
  %10 = load ptr, ptr %9, align 8, !tbaa !18
  %11 = call i32 @Vec_PtrSize(ptr noundef %10)
  %12 = load ptr, ptr %3, align 8, !tbaa !8
  %13 = getelementptr inbounds nuw %struct.Fra_Cla_t_, ptr %12, i32 0, i32 2
  %14 = load ptr, ptr %13, align 8, !tbaa !17
  %15 = call i32 @Vec_PtrSize(ptr noundef %14)
  %16 = load ptr, ptr %3, align 8, !tbaa !8
  %17 = call i32 @Fra_ClassesCountLits(ptr noundef %16)
  %18 = call i32 (ptr, ...) @printf(ptr noundef @.str.4, i32 noundef %11, i32 noundef %15, i32 noundef %17)
  %19 = load ptr, ptr %3, align 8, !tbaa !8
  %20 = getelementptr inbounds nuw %struct.Fra_Cla_t_, ptr %19, i32 0, i32 11
  %21 = load ptr, ptr %20, align 8, !tbaa !42
  %22 = icmp ne ptr %21, null
  br i1 %22, label %23, label %35

23:                                               ; preds = %2
  %24 = load ptr, ptr %3, align 8, !tbaa !8
  %25 = getelementptr inbounds nuw %struct.Fra_Cla_t_, ptr %24, i32 0, i32 11
  %26 = load ptr, ptr %25, align 8, !tbaa !42
  %27 = call i32 @Vec_IntSize(ptr noundef %26)
  %28 = icmp sgt i32 %27, 0
  br i1 %28, label %29, label %35

29:                                               ; preds = %23
  %30 = load ptr, ptr %3, align 8, !tbaa !8
  %31 = getelementptr inbounds nuw %struct.Fra_Cla_t_, ptr %30, i32 0, i32 11
  %32 = load ptr, ptr %31, align 8, !tbaa !42
  %33 = call i32 @Vec_IntSize(ptr noundef %32)
  %34 = call i32 (ptr, ...) @printf(ptr noundef @.str.5, i32 noundef %33)
  br label %35

35:                                               ; preds = %29, %23, %2
  %36 = call i32 (ptr, ...) @printf(ptr noundef @.str.6)
  %37 = load i32, ptr %4, align 4, !tbaa !35
  %38 = icmp ne i32 %37, 0
  br i1 %38, label %39, label %124

39:                                               ; preds = %35
  store i32 0, ptr %7, align 4, !tbaa !35
  br label %40

40:                                               ; preds = %56, %39
  %41 = load i32, ptr %7, align 4, !tbaa !35
  %42 = load ptr, ptr %3, align 8, !tbaa !8
  %43 = getelementptr inbounds nuw %struct.Fra_Cla_t_, ptr %42, i32 0, i32 3
  %44 = load ptr, ptr %43, align 8, !tbaa !18
  %45 = call i32 @Vec_PtrSize(ptr noundef %44)
  %46 = icmp slt i32 %41, %45
  br i1 %46, label %47, label %53

47:                                               ; preds = %40
  %48 = load ptr, ptr %3, align 8, !tbaa !8
  %49 = getelementptr inbounds nuw %struct.Fra_Cla_t_, ptr %48, i32 0, i32 3
  %50 = load ptr, ptr %49, align 8, !tbaa !18
  %51 = load i32, ptr %7, align 4, !tbaa !35
  %52 = call ptr @Vec_PtrEntry(ptr noundef %50, i32 noundef %51)
  store ptr %52, ptr %6, align 8, !tbaa !47
  br label %53

53:                                               ; preds = %47, %40
  %54 = phi i1 [ false, %40 ], [ true, %47 ]
  br i1 %54, label %55, label %59

55:                                               ; preds = %53
  br label %56

56:                                               ; preds = %55
  %57 = load i32, ptr %7, align 4, !tbaa !35
  %58 = add nsw i32 %57, 1
  store i32 %58, ptr %7, align 4, !tbaa !35
  br label %40, !llvm.loop !59

59:                                               ; preds = %53
  %60 = call i32 (ptr, ...) @printf(ptr noundef @.str.7)
  store i32 0, ptr %7, align 4, !tbaa !35
  br label %61

61:                                               ; preds = %92, %59
  %62 = load i32, ptr %7, align 4, !tbaa !35
  %63 = load ptr, ptr %3, align 8, !tbaa !8
  %64 = getelementptr inbounds nuw %struct.Fra_Cla_t_, ptr %63, i32 0, i32 3
  %65 = load ptr, ptr %64, align 8, !tbaa !18
  %66 = call i32 @Vec_PtrSize(ptr noundef %65)
  %67 = icmp slt i32 %62, %66
  br i1 %67, label %68, label %74

68:                                               ; preds = %61
  %69 = load ptr, ptr %3, align 8, !tbaa !8
  %70 = getelementptr inbounds nuw %struct.Fra_Cla_t_, ptr %69, i32 0, i32 3
  %71 = load ptr, ptr %70, align 8, !tbaa !18
  %72 = load i32, ptr %7, align 4, !tbaa !35
  %73 = call ptr @Vec_PtrEntry(ptr noundef %71, i32 noundef %72)
  store ptr %73, ptr %6, align 8, !tbaa !47
  br label %74

74:                                               ; preds = %68, %61
  %75 = phi i1 [ false, %61 ], [ true, %68 ]
  br i1 %75, label %76, label %95

76:                                               ; preds = %74
  %77 = load ptr, ptr %6, align 8, !tbaa !47
  %78 = getelementptr inbounds nuw %struct.Aig_Obj_t_, ptr %77, i32 0, i32 5
  %79 = load i32, ptr %78, align 4, !tbaa !50
  %80 = load ptr, ptr %6, align 8, !tbaa !47
  %81 = getelementptr inbounds nuw %struct.Aig_Obj_t_, ptr %80, i32 0, i32 3
  %82 = load i64, ptr %81, align 8
  %83 = lshr i64 %82, 32
  %84 = and i64 %83, 16777215
  %85 = trunc i64 %84 to i32
  %86 = load ptr, ptr %3, align 8, !tbaa !8
  %87 = getelementptr inbounds nuw %struct.Fra_Cla_t_, ptr %86, i32 0, i32 0
  %88 = load ptr, ptr %87, align 8, !tbaa !10
  %89 = load ptr, ptr %6, align 8, !tbaa !47
  %90 = call i32 @Aig_SupportSize(ptr noundef %88, ptr noundef %89)
  %91 = call i32 (ptr, ...) @printf(ptr noundef @.str.2, i32 noundef %79, i32 noundef %85, i32 noundef %90)
  br label %92

92:                                               ; preds = %76
  %93 = load i32, ptr %7, align 4, !tbaa !35
  %94 = add nsw i32 %93, 1
  store i32 %94, ptr %7, align 4, !tbaa !35
  br label %61, !llvm.loop !60

95:                                               ; preds = %74
  %96 = call i32 (ptr, ...) @printf(ptr noundef @.str.3)
  store i32 0, ptr %7, align 4, !tbaa !35
  br label %97

97:                                               ; preds = %119, %95
  %98 = load i32, ptr %7, align 4, !tbaa !35
  %99 = load ptr, ptr %3, align 8, !tbaa !8
  %100 = getelementptr inbounds nuw %struct.Fra_Cla_t_, ptr %99, i32 0, i32 2
  %101 = load ptr, ptr %100, align 8, !tbaa !17
  %102 = call i32 @Vec_PtrSize(ptr noundef %101)
  %103 = icmp slt i32 %98, %102
  br i1 %103, label %104, label %110

104:                                              ; preds = %97
  %105 = load ptr, ptr %3, align 8, !tbaa !8
  %106 = getelementptr inbounds nuw %struct.Fra_Cla_t_, ptr %105, i32 0, i32 2
  %107 = load ptr, ptr %106, align 8, !tbaa !17
  %108 = load i32, ptr %7, align 4, !tbaa !35
  %109 = call ptr @Vec_PtrEntry(ptr noundef %107, i32 noundef %108)
  store ptr %109, ptr %5, align 8, !tbaa !53
  br label %110

110:                                              ; preds = %104, %97
  %111 = phi i1 [ false, %97 ], [ true, %104 ]
  br i1 %111, label %112, label %122

112:                                              ; preds = %110
  %113 = load i32, ptr %7, align 4, !tbaa !35
  %114 = load ptr, ptr %5, align 8, !tbaa !53
  %115 = call i32 @Fra_ClassCount(ptr noundef %114)
  %116 = call i32 (ptr, ...) @printf(ptr noundef @.str.8, i32 noundef %113, i32 noundef %115)
  %117 = load ptr, ptr %3, align 8, !tbaa !8
  %118 = load ptr, ptr %5, align 8, !tbaa !53
  call void @Fra_PrintClass(ptr noundef %117, ptr noundef %118)
  br label %119

119:                                              ; preds = %112
  %120 = load i32, ptr %7, align 4, !tbaa !35
  %121 = add nsw i32 %120, 1
  store i32 %121, ptr %7, align 4, !tbaa !35
  br label %97, !llvm.loop !61

122:                                              ; preds = %110
  %123 = call i32 (ptr, ...) @printf(ptr noundef @.str.6)
  br label %124

124:                                              ; preds = %122, %35
  call void @llvm.lifetime.end.p0(i64 4, ptr %7) #10
  call void @llvm.lifetime.end.p0(i64 8, ptr %6) #10
  call void @llvm.lifetime.end.p0(i64 8, ptr %5) #10
  ret void
}