; Function Attrs: nounwind uwtable
define void @Fra_ClassesPrint(ptr noundef readonly captures(none) %0, i32 noundef %1) local_unnamed_addr #6 {
  %3 = getelementptr inbounds nuw i8, ptr %0, i64 24
  %4 = load ptr, ptr %3, align 8, !tbaa !29
  %5 = getelementptr i8, ptr %4, i64 4
  %.val39 = load i32, ptr %5, align 4, !tbaa !23
  %6 = getelementptr inbounds nuw i8, ptr %0, i64 16
  %7 = load ptr, ptr %6, align 8, !tbaa !28
  %8 = getelementptr i8, ptr %7, i64 4
  %.val38 = load i32, ptr %8, align 4, !tbaa !23
  %9 = icmp sgt i32 %.val38, 0
  br i1 %9, label %.lr.ph.i, label %Fra_ClassesCountLits.exit

.lr.ph.i:                                         ; preds = %2
  %10 = getelementptr i8, ptr %7, i64 8
  %.val11.i = load ptr, ptr %10, align 8, !tbaa !27
  %wide.trip.count.i = zext nneg i32 %.val38 to i64
  br label %11

11:                                               ; preds = %Fra_ClassCount.exit.i, %.lr.ph.i
  %indvars.iv.i = phi i64 [ 0, %.lr.ph.i ], [ %indvars.iv.next.i, %Fra_ClassCount.exit.i ]
  %.013.i = phi i32 [ %.val39, %.lr.ph.i ], [ %19, %Fra_ClassCount.exit.i ]
  %12 = getelementptr inbounds nuw ptr, ptr %.val11.i, i64 %indvars.iv.i
  %13 = load ptr, ptr %12, align 8, !tbaa !41
  br label %14

14:                                               ; preds = %14, %11
  %indvars.iv.i.i = phi i64 [ %indvars.iv.next.i.i, %14 ], [ 0, %11 ]
  %15 = getelementptr inbounds nuw ptr, ptr %13, i64 %indvars.iv.i.i
  %16 = load ptr, ptr %15, align 8, !tbaa !42
  %.not.i.i = icmp eq ptr %16, null
  %indvars.iv.next.i.i = add nuw nsw i64 %indvars.iv.i.i, 1
  br i1 %.not.i.i, label %Fra_ClassCount.exit.i, label %14, !llvm.loop !47

Fra_ClassCount.exit.i:                            ; preds = %14
  %17 = trunc nuw nsw i64 %indvars.iv.i.i to i32
  %18 = add i32 %.013.i, -1
  %19 = add i32 %18, %17
  %indvars.iv.next.i = add nuw nsw i64 %indvars.iv.i, 1
  %exitcond.not.i = icmp eq i64 %indvars.iv.next.i, %wide.trip.count.i
  br i1 %exitcond.not.i, label %Fra_ClassesCountLits.exit, label %11, !llvm.loop !48

Fra_ClassesCountLits.exit:                        ; preds = %Fra_ClassCount.exit.i, %2
  %.0.lcssa.i = phi i32 [ %.val39, %2 ], [ %19, %Fra_ClassCount.exit.i ]
  %20 = tail call i32 (ptr, ...) @printf(ptr noundef nonnull dereferenceable(1) @.str.4, i32 noundef %.val39, i32 noundef %.val38, i32 noundef %.0.lcssa.i)
  %21 = getelementptr inbounds nuw i8, ptr %0, i64 80
  %22 = load ptr, ptr %21, align 8, !tbaa !37
  %.not = icmp eq ptr %22, null
  br i1 %.not, label %28, label %23

23:                                               ; preds = %Fra_ClassesCountLits.exit
  %24 = getelementptr i8, ptr %22, i64 4
  %.val43 = load i32, ptr %24, align 4, !tbaa !51
  %25 = icmp sgt i32 %.val43, 0
  br i1 %25, label %26, label %28

26:                                               ; preds = %23
  %27 = tail call i32 (ptr, ...) @printf(ptr noundef nonnull dereferenceable(1) @.str.5, i32 noundef %.val43)
  br label %28

28:                                               ; preds = %26, %23, %Fra_ClassesCountLits.exit
  %putchar = tail call i32 @putchar(i32 10)
  %.not34 = icmp eq i32 %1, 0
  br i1 %.not34, label %83, label %.preheader

.preheader:                                       ; preds = %28
  %29 = tail call i32 (ptr, ...) @printf(ptr noundef nonnull dereferenceable(1) @.str.7)
  %30 = load ptr, ptr %3, align 8, !tbaa !29
  %31 = getelementptr i8, ptr %30, i64 4
  %.val3650 = load i32, ptr %31, align 4, !tbaa !23
  %32 = icmp sgt i32 %.val3650, 0
  br i1 %32, label %.lr.ph, label %.critedge2

.lr.ph:                                           ; preds = %.preheader, %.lr.ph
  %indvars.iv = phi i64 [ %indvars.iv.next, %.lr.ph ], [ 0, %.preheader ]
  %33 = phi ptr [ %47, %.lr.ph ], [ %30, %.preheader ]
  %34 = getelementptr i8, ptr %33, i64 8
  %.val41 = load ptr, ptr %34, align 8, !tbaa !27
  %35 = getelementptr inbounds nuw ptr, ptr %.val41, i64 %indvars.iv
  %36 = load ptr, ptr %35, align 8, !tbaa !41
  %37 = getelementptr inbounds nuw i8, ptr %36, i64 36
  %38 = load i32, ptr %37, align 4, !tbaa !45
  %39 = getelementptr inbounds nuw i8, ptr %36, i64 24
  %40 = load i64, ptr %39, align 8
  %41 = lshr i64 %40, 32
  %42 = trunc nuw i64 %41 to i32
  %43 = and i32 %42, 16777215
  %44 = load ptr, ptr %0, align 8, !tbaa !3
  %45 = tail call i32 @Aig_SupportSize(ptr noundef %44, ptr noundef %36) #18
  %46 = tail call i32 (ptr, ...) @printf(ptr noundef nonnull dereferenceable(1) @.str.2, i32 noundef %38, i32 noundef %43, i32 noundef %45)
  %indvars.iv.next = add nuw nsw i64 %indvars.iv, 1
  %47 = load ptr, ptr %3, align 8, !tbaa !29
  %48 = getelementptr i8, ptr %47, i64 4
  %.val36 = load i32, ptr %48, align 4, !tbaa !23
  %49 = sext i32 %.val36 to i64
  %50 = icmp slt i64 %indvars.iv.next, %49
  br i1 %50, label %.lr.ph, label %.critedge2, !llvm.loop !52

.critedge2:                                       ; preds = %.lr.ph, %.preheader
  %puts = tail call i32 @puts(ptr nonnull dereferenceable(1) @str.2)
  %51 = load ptr, ptr %6, align 8, !tbaa !28
  %52 = getelementptr i8, ptr %51, i64 4
  %.val52 = load i32, ptr %52, align 4, !tbaa !23
  %53 = icmp sgt i32 %.val52, 0
  br i1 %53, label %.lr.ph54, label %.critedge4

.lr.ph54:                                         ; preds = %.critedge2, %Fra_PrintClass.exit
  %indvars.iv56 = phi i64 [ %indvars.iv.next57, %Fra_PrintClass.exit ], [ 0, %.critedge2 ]
  %54 = phi ptr [ %79, %Fra_PrintClass.exit ], [ %51, %.critedge2 ]
  %55 = getelementptr i8, ptr %54, i64 8
  %.val40 = load ptr, ptr %55, align 8, !tbaa !27
  %56 = getelementptr inbounds nuw ptr, ptr %.val40, i64 %indvars.iv56
  %57 = load ptr, ptr %56, align 8, !tbaa !41
  br label %58

58:                                               ; preds = %58, %.lr.ph54
  %indvars.iv.i45 = phi i64 [ %indvars.iv.next.i46, %58 ], [ 0, %.lr.ph54 ]
  %59 = getelementptr inbounds nuw ptr, ptr %57, i64 %indvars.iv.i45
  %60 = load ptr, ptr %59, align 8, !tbaa !42
  %.not.i = icmp eq ptr %60, null
  %indvars.iv.next.i46 = add nuw nsw i64 %indvars.iv.i45, 1
  br i1 %.not.i, label %Fra_ClassCount.exit, label %58, !llvm.loop !47

Fra_ClassCount.exit:                              ; preds = %58
  %61 = trunc nuw nsw i64 %indvars.iv.i45 to i32
  %62 = trunc nuw nsw i64 %indvars.iv56 to i32
  %63 = tail call i32 (ptr, ...) @printf(ptr noundef nonnull dereferenceable(1) @.str.8, i32 noundef %62, i32 noundef %61)
  %64 = tail call i32 (ptr, ...) @printf(ptr noundef nonnull dereferenceable(1) @.str.1)
  %65 = load ptr, ptr %57, align 8, !tbaa !42
  %.not1011.i = icmp eq ptr %65, null
  br i1 %.not1011.i, label %Fra_PrintClass.exit, label %.lr.ph.i47

.lr.ph.i47:                                       ; preds = %Fra_ClassCount.exit, %.lr.ph.i47
  %indvars.iv.i48 = phi i64 [ %indvars.iv.next.i49, %.lr.ph.i47 ], [ 0, %Fra_ClassCount.exit ]
  %66 = phi ptr [ %78, %.lr.ph.i47 ], [ %65, %Fra_ClassCount.exit ]
  %67 = getelementptr inbounds nuw i8, ptr %66, i64 36
  %68 = load i32, ptr %67, align 4, !tbaa !45
  %69 = getelementptr inbounds nuw i8, ptr %66, i64 24
  %70 = load i64, ptr %69, align 8
  %71 = lshr i64 %70, 32
  %72 = trunc nuw i64 %71 to i32
  %73 = and i32 %72, 16777215
  %74 = load ptr, ptr %0, align 8, !tbaa !3
  %75 = tail call i32 @Aig_SupportSize(ptr noundef %74, ptr noundef nonnull %66) #18
  %76 = tail call i32 (ptr, ...) @printf(ptr noundef nonnull dereferenceable(1) @.str.2, i32 noundef %68, i32 noundef %73, i32 noundef %75)
  %indvars.iv.next.i49 = add nuw nsw i64 %indvars.iv.i48, 1
  %77 = getelementptr inbounds nuw ptr, ptr %57, i64 %indvars.iv.next.i49
  %78 = load ptr, ptr %77, align 8, !tbaa !42
  %.not10.i = icmp eq ptr %78, null
  br i1 %.not10.i, label %Fra_PrintClass.exit, label %.lr.ph.i47, !llvm.loop !50

Fra_PrintClass.exit:                              ; preds = %.lr.ph.i47, %Fra_ClassCount.exit
  %puts.i = tail call i32 @puts(ptr nonnull dereferenceable(1) @str.2)
  %indvars.iv.next57 = add nuw nsw i64 %indvars.iv56, 1
  %79 = load ptr, ptr %6, align 8, !tbaa !28
  %80 = getelementptr i8, ptr %79, i64 4
  %.val = load i32, ptr %80, align 4, !tbaa !23
  %81 = sext i32 %.val to i64
  %82 = icmp slt i64 %indvars.iv.next57, %81
  br i1 %82, label %.lr.ph54, label %.critedge4, !llvm.loop !53

.critedge4:                                       ; preds = %Fra_PrintClass.exit, %.critedge2
  %putchar35 = tail call i32 @putchar(i32 10)
  br label %83

83:                                               ; preds = %.critedge4, %28
  ret void
}